; ModuleID = '21/692.c'
source_filename = "21/692.c"
target datalayout = "e-m:e-p270:32:32-p271:32:32-p272:64:64-i64:64-f80:128-n8:16:32:64-S128"
target triple = "x86_64-pc-linux-gnu"

@.str = private unnamed_addr constant [3 x i8] c"%d\00", align 1
@.str.1 = private unnamed_addr constant [4 x i8] c"%d,\00", align 1
@.str.2 = private unnamed_addr constant [4 x i8] c"%d\0A\00", align 1

; Function Attrs: noinline nounwind uwtable
define dso_local void @main() #0 {
  %1 = alloca i32, align 4
  %2 = alloca i32, align 4
  %3 = alloca i32, align 4
  %4 = alloca i32, align 4
  %5 = alloca i32, align 4
  %6 = alloca i32, align 4
  %7 = alloca i32, align 4
  %8 = alloca i32, align 4
  %9 = alloca float, align 4
  %10 = call i32 (i8*, ...) @__isoc99_scanf(i8* getelementptr inbounds ([3 x i8], [3 x i8]* @.str, i64 0, i64 0), i32* %1)
  %11 = call i32 (i8*, ...) @__isoc99_scanf(i8* getelementptr inbounds ([3 x i8], [3 x i8]* @.str, i64 0, i64 0), i32* %3)
  %12 = load i32, i32* %3, align 4
  store i32 %12, i32* %2, align 4
  store i32 %12, i32* %6, align 4
  store i32 %12, i32* %5, align 4
  store i32 1, i32* %8, align 4
  store i32 1, i32* %7, align 4
  store i32 1, i32* %4, align 4
  br label %13

13:                                               ; preds = %50, %0
  %14 = load i32, i32* %4, align 4
  %15 = load i32, i32* %1, align 4
  %16 = icmp slt i32 %14, %15
  br i1 %16, label %17, label %53

17:                                               ; preds = %13
  %18 = call i32 (i8*, ...) @__isoc99_scanf(i8* getelementptr inbounds ([3 x i8], [3 x i8]* @.str, i64 0, i64 0), i32* %3)
  %19 = load i32, i32* %3, align 4
  %20 = load i32, i32* %6, align 4
  %21 = icmp sgt i32 %19, %20
  br i1 %21, label %22, label %24

22:                                               ; preds = %17
  %23 = load i32, i32* %3, align 4
  store i32 %23, i32* %6, align 4
  store i32 1, i32* %8, align 4
  br label %32

24:                                               ; preds = %17
  %25 = load i32, i32* %3, align 4
  %26 = load i32, i32* %6, align 4
  %27 = icmp eq i32 %25, %26
  br i1 %27, label %28, label %31

28:                                               ; preds = %24
  %29 = load i32, i32* %8, align 4
  %30 = add nsw i32 %29, 1
  store i32 %30, i32* %8, align 4
  br label %31

31:                                               ; preds = %28, %24
  br label %32

32:                                               ; preds = %31, %22
  %33 = load i32, i32* %3, align 4
  %34 = load i32, i32* %5, align 4
  %35 = icmp slt i32 %33, %34
  br i1 %35, label %36, label %38

36:                                               ; preds = %32
  %37 = load i32, i32* %3, align 4
  store i32 %37, i32* %5, align 4
  store i32 1, i32* %7, align 4
  br label %46

38:                                               ; preds = %32
  %39 = load i32, i32* %3, align 4
  %40 = load i32, i32* %5, align 4
  %41 = icmp eq i32 %39, %40
  br i1 %41, label %42, label %45

42:                                               ; preds = %38
  %43 = load i32, i32* %7, align 4
  %44 = add nsw i32 %43, 1
  store i32 %44, i32* %7, align 4
  br label %45

45:                                               ; preds = %42, %38
  br label %46

46:                                               ; preds = %45, %36
  %47 = load i32, i32* %2, align 4
  %48 = load i32, i32* %3, align 4
  %49 = add nsw i32 %47, %48
  store i32 %49, i32* %2, align 4
  br label %50

50:                                               ; preds = %46
  %51 = load i32, i32* %4, align 4
  %52 = add nsw i32 %51, 1
  store i32 %52, i32* %4, align 4
  br label %13

53:                                               ; preds = %13
  %54 = load i32, i32* %2, align 4
  %55 = sitofp i32 %54 to float
  %56 = load i32, i32* %1, align 4
  %57 = sitofp i32 %56 to float
  %58 = fdiv float %55, %57
  store float %58, float* %9, align 4
  %59 = load float, float* %9, align 4
  %60 = fmul float 2.000000e+00, %59
  %61 = load i32, i32* %6, align 4
  %62 = load i32, i32* %5, align 4
  %63 = add nsw i32 %61, %62
  %64 = sitofp i32 %63 to float
  %65 = fcmp ogt float %60, %64
  br i1 %65, label %66, label %81

66:                                               ; preds = %53
  store i32 0, i32* %4, align 4
  br label %67

67:                                               ; preds = %75, %66
  %68 = load i32, i32* %4, align 4
  %69 = load i32, i32* %7, align 4
  %70 = sub nsw i32 %69, 1
  %71 = icmp slt i32 %68, %70
  br i1 %71, label %72, label %78

72:                                               ; preds = %67
  %73 = load i32, i32* %5, align 4
  %74 = call i32 (i8*, ...) @printf(i8* getelementptr inbounds ([4 x i8], [4 x i8]* @.str.1, i64 0, i64 0), i32 %73)
  br label %75

75:                                               ; preds = %72
  %76 = load i32, i32* %4, align 4
  %77 = add nsw i32 %76, 1
  store i32 %77, i32* %4, align 4
  br label %67

78:                                               ; preds = %67
  %79 = load i32, i32* %5, align 4
  %80 = call i32 (i8*, ...) @printf(i8* getelementptr inbounds ([4 x i8], [4 x i8]* @.str.2, i64 0, i64 0), i32 %79)
  br label %131

81:                                               ; preds = %53
  %82 = load float, float* %9, align 4
  %83 = fmul float 2.000000e+00, %82
  %84 = load i32, i32* %6, align 4
  %85 = load i32, i32* %5, align 4
  %86 = add nsw i32 %84, %85
  %87 = sitofp i32 %86 to float
  %88 = fcmp olt float %83, %87
  br i1 %88, label %89, label %104

89:                                               ; preds = %81
  store i32 0, i32* %4, align 4
  br label %90

90:                                               ; preds = %98, %89
  %91 = load i32, i32* %4, align 4
  %92 = load i32, i32* %8, align 4
  %93 = sub nsw i32 %92, 1
  %94 = icmp slt i32 %91, %93
  br i1 %94, label %95, label %101

95:                                               ; preds = %90
  %96 = load i32, i32* %6, align 4
  %97 = call i32 (i8*, ...) @printf(i8* getelementptr inbounds ([4 x i8], [4 x i8]* @.str.1, i64 0, i64 0), i32 %96)
  br label %98

98:                                               ; preds = %95
  %99 = load i32, i32* %4, align 4
  %100 = add nsw i32 %99, 1
  store i32 %100, i32* %4, align 4
  br label %90

101:                                              ; preds = %90
  %102 = load i32, i32* %6, align 4
  %103 = call i32 (i8*, ...) @printf(i8* getelementptr inbounds ([4 x i8], [4 x i8]* @.str.2, i64 0, i64 0), i32 %102)
  br label %130

104:                                              ; preds = %81
  store i32 0, i32* %4, align 4
  br label %105

105:                                              ; preds = %112, %104
  %106 = load i32, i32* %4, align 4
  %107 = load i32, i32* %7, align 4
  %108 = icmp slt i32 %106, %107
  br i1 %108, label %109, label %115

109:                                              ; preds = %105
  %110 = load i32, i32* %5, align 4
  %111 = call i32 (i8*, ...) @printf(i8* getelementptr inbounds ([4 x i8], [4 x i8]* @.str.1, i64 0, i64 0), i32 %110)
  br label %112

112:                                              ; preds = %109
  %113 = load i32, i32* %4, align 4
  %114 = add nsw i32 %113, 1
  store i32 %114, i32* %4, align 4
  br label %105

115:                                              ; preds = %105
  store i32 0, i32* %4, align 4
  br label %116

116:                                              ; preds = %124, %115
  %117 = load i32, i32* %4, align 4
  %118 = load i32, i32* %8, align 4
  %119 = sub nsw i32 %118, 1
  %120 = icmp slt i32 %117, %119
  br i1 %120, label %121, label %127

121:                                              ; preds = %116
  %122 = load i32, i32* %6, align 4
  %123 = call i32 (i8*, ...) @printf(i8* getelementptr inbounds ([4 x i8], [4 x i8]* @.str.1, i64 0, i64 0), i32 %122)
  br label %124

124:                                              ; preds = %121
  %125 = load i32, i32* %4, align 4
  %126 = add nsw i32 %125, 1
  store i32 %126, i32* %4, align 4
  br label %116

127:                                              ; preds = %116
  %128 = load i32, i32* %6, align 4
  %129 = call i32 (i8*, ...) @printf(i8* getelementptr inbounds ([4 x i8], [4 x i8]* @.str.2, i64 0, i64 0), i32 %128)
  br label %130

130:                                              ; preds = %127, %101
  br label %131

131:                                              ; preds = %130, %78
  ret void
}

declare dso_local i32 @__isoc99_scanf(i8*, ...) #1

declare dso_local i32 @printf(i8*, ...) #1


!llvm.module.flags = !{!0}
!llvm.ident = !{!1}

!0 = !{i32 1, !"wchar_size", i32 4}
!1 = !{!"clang version 10.0.0-4ubuntu1 "}
